; Function Attrs: mustprogress uwtable
define void @_ZNK6casadi6MXNode9get_nzaddERKNS_2MXES3_S3_(ptr dead_on_unwind noalias writable sret(%"class.casadi::MX") align 8 %0, ptr noundef nonnull align 8 dereferenceable(64) %1, ptr noundef nonnull align 8 dereferenceable(8) %2, ptr noundef nonnull align 8 dereferenceable(8) %3, ptr noundef nonnull align 8 dereferenceable(8) %4) unnamed_addr #3 align 2 personality ptr @__gxx_personality_v0 {
  %6 = alloca %"class.casadi::MX", align 8
  %7 = tail call noundef nonnull align 8 dereferenceable(8) ptr @_ZNK6casadi2MX8sparsityEv(ptr noundef nonnull align 8 dereferenceable(8) %3)
  %8 = tail call noundef zeroext i1 @_ZNK6casadi8Sparsity8is_emptyEb(ptr noundef nonnull align 8 dereferenceable(8) %7, i1 noundef zeroext false)
  br i1 %8, label %17, label %9

9:                                                ; preds = %5
  %10 = tail call noundef nonnull align 8 dereferenceable(8) ptr @_ZNK6casadi2MX8sparsityEv(ptr noundef nonnull align 8 dereferenceable(8) %4)
  %11 = tail call noundef zeroext i1 @_ZNK6casadi8Sparsity8is_emptyEb(ptr noundef nonnull align 8 dereferenceable(8) %10, i1 noundef zeroext false)
  br i1 %11, label %17, label %12

12:                                               ; preds = %9
  %13 = load ptr, ptr %1, align 8
  %14 = getelementptr inbounds i8, ptr %13, i64 40
  %15 = load ptr, ptr %14, align 8
  %16 = tail call noundef zeroext i1 %15(ptr noundef nonnull align 8 dereferenceable(64) %1)
  br i1 %16, label %17, label %18

17:                                               ; preds = %12, %9, %5
  tail call void @_ZN6casadi12SharedObjectC2ERKS0_(ptr noundef nonnull align 8 dereferenceable(8) %0, ptr noundef nonnull align 8 dereferenceable(8) %2)
  br label %22

18:                                               ; preds = %12
  call void @_ZNK6casadi20SharedObjectInternal16shared_from_thisINS_2MXEEEKT_v(ptr dead_on_unwind nonnull writable sret(%"class.casadi::MX") align 8 %6, ptr noundef nonnull align 8 dereferenceable(24) %1)
  invoke void @_ZN6casadi16SetNonzerosParamILb1EE6createERKNS_2MXES4_S4_S4_(ptr dead_on_unwind writable sret(%"class.casadi::MX") align 8 %0, ptr noundef nonnull align 8 dereferenceable(8) %2, ptr noundef nonnull align 8 dereferenceable(8) %6, ptr noundef nonnull align 8 dereferenceable(8) %3, ptr noundef nonnull align 8 dereferenceable(8) %4)
          to label %19 unwind label %20

19:                                               ; preds = %18
  call void @_ZN6casadi2MXD1Ev(ptr noundef nonnull align 8 dereferenceable(8) %6) #31
  br label %22

20:                                               ; preds = %18
  %21 = landingpad { ptr, i32 }
          cleanup
  call void @_ZN6casadi2MXD1Ev(ptr noundef nonnull align 8 dereferenceable(8) %6) #31
  resume { ptr, i32 } %21

22:                                               ; preds = %19, %17
  ret void
}